target datalayout = "e-m:e-p270:32:32-p271:32:32-p272:64:64-i64:64-i128:128-f80:128-n8:16:32:64-S128"
target triple = "x86_64-pc-linux-gnu"

%struct._packet_info = type { ptr, ptr, i32, i32, %struct.nstime_t, %struct.nstime_t, %struct.nstime_t, i8, ptr, ptr, ptr, ptr, %struct._address, %struct._address, %struct._address, %struct._address, %struct._address, %struct._address, i32, ptr, i8, [3 x i8], %struct.anon, i32, i32, i32, i32, ptr, i8, ptr, ptr, i16, i16, i32, i32, i16, i32, i32, ptr, ptr, ptr, i8, i8, i16, i16, i16, i32, i16, i16, ptr, ptr, ptr, ptr, ptr, i32, i32 }
%struct.nstime_t = type { i64, i32 }
%struct._address = type { i32, i32, ptr, ptr }
%struct.anon = type { i8, [3 x i8] }
%struct.nvme_cmd_ctx = type { i32, i32, i32, [16 x i32], i32, %struct.nstime_t, %struct.nstime_t, i32, i8, %union.anon, i8 }
%union.anon = type { %struct.anon.1 }
%struct.anon.1 = type { i32, i32, i32, i32, i16, i8, i8, i64, i8 }

; Function Attrs: nounwind null_pointer_is_valid sspstrong uwtable
define hidden void @nvme_update_cmd_end_info(ptr noundef %0, ptr noundef %1) #5 {
  %3 = alloca ptr, align 8
  %4 = alloca ptr, align 8
  store ptr %0, ptr %3, align 8
  store ptr %1, ptr %4, align 8
  %5 = load ptr, ptr %4, align 8
  %6 = getelementptr inbounds nuw %struct.nvme_cmd_ctx, ptr %5, i32 0, i32 6
  %7 = load ptr, ptr %3, align 8
  %8 = getelementptr inbounds nuw %struct._packet_info, ptr %7, i32 0, i32 4
  call void @llvm.memcpy.p0.p0.i64(ptr align 8 %6, ptr align 8 %8, i64 16, i1 false)
  %9 = load ptr, ptr %3, align 8
  %10 = getelementptr inbounds nuw %struct._packet_info, ptr %9, i32 0, i32 3
  %11 = load i32, ptr %10, align 4
  %12 = load ptr, ptr %4, align 8
  %13 = getelementptr inbounds nuw %struct.nvme_cmd_ctx, ptr %12, i32 0, i32 1
  store i32 %11, ptr %13, align 4
  ret void
}